target datalayout = "e-m:e-p270:32:32-p271:32:32-p272:64:64-i64:64-i128:128-f80:128-n8:16:32:64-S128"
target triple = "x86_64-pc-linux-gnu"

%struct.AVFilterContext = type { ptr, ptr, ptr, ptr, ptr, i32, ptr, ptr, i32, ptr, ptr, i32, i32, ptr, ptr, ptr, ptr, i32, ptr, i32, i32 }
%struct.LutContext = type { ptr, [4 x [65536 x i16]], [4 x ptr], [4 x ptr], i32, i32, [7 x double], i32, i32, i32, i32, i32 }
%struct.thread_data = type { ptr, ptr, i32, i32 }
%struct.AVChannelLayout = type { i32, i32, %union.anon.1, ptr }
%union.anon.1 = type { i64 }
%struct.AVRational = type { i32, i32 }
%struct.AVFrame = type { [8 x ptr], [8 x i32], ptr, i32, i32, i32, i32, i32, %struct.AVRational, i64, i64, %struct.AVRational, i32, ptr, i32, i32, [8 x ptr], ptr, i32, ptr, i32, i32, i32, i32, i32, i32, i32, i64, ptr, i32, ptr, ptr, i64, i64, i64, i64, ptr, %struct.AVChannelLayout, i64 }

; Function Attrs: nounwind uwtable
define internal i32 @lut_packed_8bits(ptr noundef %0, ptr noundef %1, i32 noundef %2, i32 noundef %3) #1 {
  %5 = alloca ptr, align 8
  %6 = alloca ptr, align 8
  %7 = alloca i32, align 4
  %8 = alloca i32, align 4
  %9 = alloca ptr, align 8
  %10 = alloca ptr, align 8
  %11 = alloca i32, align 4
  %12 = alloca i32, align 4
  %13 = alloca i32, align 4
  %14 = alloca i32, align 4
  %15 = alloca ptr, align 8
  %16 = alloca ptr, align 8
  %17 = alloca ptr, align 8
  %18 = alloca i32, align 4
  %19 = alloca i32, align 4
  %20 = alloca i32, align 4
  %21 = alloca ptr, align 8
  %22 = alloca ptr, align 8
  %23 = alloca ptr, align 8
  %24 = alloca ptr, align 8
  %25 = alloca i32, align 4
  %26 = alloca i32, align 4
  store ptr %0, ptr %5, align 8, !tbaa !4
  store ptr %1, ptr %6, align 8, !tbaa !34
  store i32 %2, ptr %7, align 4, !tbaa !24
  store i32 %3, ptr %8, align 4, !tbaa !24
  call void @llvm.lifetime.start.p0(i64 8, ptr %9) #8
  %27 = load ptr, ptr %5, align 8, !tbaa !4
  %28 = getelementptr inbounds nuw %struct.AVFilterContext, ptr %27, i32 0, i32 9
  %29 = load ptr, ptr %28, align 8, !tbaa !9
  store ptr %29, ptr %9, align 8, !tbaa !22
  call void @llvm.lifetime.start.p0(i64 8, ptr %10) #8
  %30 = load ptr, ptr %6, align 8, !tbaa !34
  store ptr %30, ptr %10, align 8, !tbaa !85
  call void @llvm.lifetime.start.p0(i64 4, ptr %11) #8
  call void @llvm.lifetime.start.p0(i64 4, ptr %12) #8
  call void @llvm.lifetime.start.p0(i64 4, ptr %13) #8
  %31 = load ptr, ptr %10, align 8, !tbaa !85
  %32 = getelementptr inbounds nuw %struct.thread_data, ptr %31, i32 0, i32 2
  %33 = load i32, ptr %32, align 8, !tbaa !57
  store i32 %33, ptr %13, align 4, !tbaa !24
  call void @llvm.lifetime.start.p0(i64 4, ptr %14) #8
  %34 = load ptr, ptr %10, align 8, !tbaa !85
  %35 = getelementptr inbounds nuw %struct.thread_data, ptr %34, i32 0, i32 3
  %36 = load i32, ptr %35, align 4, !tbaa !64
  store i32 %36, ptr %14, align 4, !tbaa !24
  call void @llvm.lifetime.start.p0(i64 8, ptr %15) #8
  %37 = load ptr, ptr %10, align 8, !tbaa !85
  %38 = getelementptr inbounds nuw %struct.thread_data, ptr %37, i32 0, i32 0
  %39 = load ptr, ptr %38, align 8, !tbaa !54
  store ptr %39, ptr %15, align 8, !tbaa !39
  call void @llvm.lifetime.start.p0(i64 8, ptr %16) #8
  %40 = load ptr, ptr %10, align 8, !tbaa !85
  %41 = getelementptr inbounds nuw %struct.thread_data, ptr %40, i32 0, i32 1
  %42 = load ptr, ptr %41, align 8, !tbaa !56
  store ptr %42, ptr %16, align 8, !tbaa !39
  call void @llvm.lifetime.start.p0(i64 8, ptr %17) #8
  %43 = load ptr, ptr %9, align 8, !tbaa !22
  %44 = getelementptr inbounds nuw %struct.LutContext, ptr %43, i32 0, i32 1
  %45 = getelementptr inbounds [4 x [65536 x i16]], ptr %44, i64 0, i64 0
  store ptr %45, ptr %17, align 8, !tbaa !87
  call void @llvm.lifetime.start.p0(i64 4, ptr %18) #8
  %46 = load ptr, ptr %9, align 8, !tbaa !22
  %47 = getelementptr inbounds nuw %struct.LutContext, ptr %46, i32 0, i32 11
  %48 = load i32, ptr %47, align 8, !tbaa !78
  store i32 %48, ptr %18, align 4, !tbaa !24
  call void @llvm.lifetime.start.p0(i64 4, ptr %19) #8
  %49 = load i32, ptr %14, align 4, !tbaa !24
  %50 = load i32, ptr %7, align 4, !tbaa !24
  %51 = mul nsw i32 %49, %50
  %52 = load i32, ptr %8, align 4, !tbaa !24
  %53 = sdiv i32 %51, %52
  store i32 %53, ptr %19, align 4, !tbaa !24
  call void @llvm.lifetime.start.p0(i64 4, ptr %20) #8
  %54 = load i32, ptr %14, align 4, !tbaa !24
  %55 = load i32, ptr %7, align 4, !tbaa !24
  %56 = add nsw i32 %55, 1
  %57 = mul nsw i32 %54, %56
  %58 = load i32, ptr %8, align 4, !tbaa !24
  %59 = sdiv i32 %57, %58
  store i32 %59, ptr %20, align 4, !tbaa !24
  call void @llvm.lifetime.start.p0(i64 8, ptr %21) #8
  call void @llvm.lifetime.start.p0(i64 8, ptr %22) #8
  call void @llvm.lifetime.start.p0(i64 8, ptr %23) #8
  call void @llvm.lifetime.start.p0(i64 8, ptr %24) #8
  call void @llvm.lifetime.start.p0(i64 4, ptr %25) #8
  %60 = load ptr, ptr %15, align 8, !tbaa !39
  %61 = getelementptr inbounds nuw %struct.AVFrame, ptr %60, i32 0, i32 1
  %62 = getelementptr inbounds [8 x i32], ptr %61, i64 0, i64 0
  %63 = load i32, ptr %62, align 8, !tbaa !24
  store i32 %63, ptr %25, align 4, !tbaa !24
  call void @llvm.lifetime.start.p0(i64 4, ptr %26) #8
  %64 = load ptr, ptr %16, align 8, !tbaa !39
  %65 = getelementptr inbounds nuw %struct.AVFrame, ptr %64, i32 0, i32 1
  %66 = getelementptr inbounds [8 x i32], ptr %65, i64 0, i64 0
  %67 = load i32, ptr %66, align 8, !tbaa !24
  store i32 %67, ptr %26, align 4, !tbaa !24
  %68 = load ptr, ptr %15, align 8, !tbaa !39
  %69 = getelementptr inbounds nuw %struct.AVFrame, ptr %68, i32 0, i32 0
  %70 = getelementptr inbounds [8 x ptr], ptr %69, i64 0, i64 0
  %71 = load ptr, ptr %70, align 8, !tbaa !35
  store ptr %71, ptr %23, align 8, !tbaa !35
  %72 = load ptr, ptr %16, align 8, !tbaa !39
  %73 = getelementptr inbounds nuw %struct.AVFrame, ptr %72, i32 0, i32 0
  %74 = getelementptr inbounds [8 x ptr], ptr %73, i64 0, i64 0
  %75 = load ptr, ptr %74, align 8, !tbaa !35
  store ptr %75, ptr %24, align 8, !tbaa !35
  %76 = load i32, ptr %19, align 4, !tbaa !24
  store i32 %76, ptr %11, align 4, !tbaa !24
  br label %77

77:                                               ; preds = %161, %4
  %78 = load i32, ptr %11, align 4, !tbaa !24
  %79 = load i32, ptr %20, align 4, !tbaa !24
  %80 = icmp slt i32 %78, %79
  br i1 %80, label %81, label %164

81:                                               ; preds = %77
  %82 = load ptr, ptr %23, align 8, !tbaa !35
  %83 = load i32, ptr %11, align 4, !tbaa !24
  %84 = load i32, ptr %25, align 4, !tbaa !24
  %85 = mul nsw i32 %83, %84
  %86 = sext i32 %85 to i64
  %87 = getelementptr inbounds i8, ptr %82, i64 %86
  store ptr %87, ptr %21, align 8, !tbaa !35
  %88 = load ptr, ptr %24, align 8, !tbaa !35
  %89 = load i32, ptr %11, align 4, !tbaa !24
  %90 = load i32, ptr %26, align 4, !tbaa !24
  %91 = mul nsw i32 %89, %90
  %92 = sext i32 %91 to i64
  %93 = getelementptr inbounds i8, ptr %88, i64 %92
  store ptr %93, ptr %22, align 8, !tbaa !35
  store i32 0, ptr %12, align 4, !tbaa !24
  br label %94

94:                                               ; preds = %157, %81
  %95 = load i32, ptr %12, align 4, !tbaa !24
  %96 = load i32, ptr %13, align 4, !tbaa !24
  %97 = icmp slt i32 %95, %96
  br i1 %97, label %98, label %160

98:                                               ; preds = %94
  %99 = load i32, ptr %18, align 4, !tbaa !24
  switch i32 %99, label %136 [
    i32 4, label %100
    i32 3, label %112
    i32 2, label %124
  ]

100:                                              ; preds = %98
  %101 = load ptr, ptr %17, align 8, !tbaa !87
  %102 = getelementptr inbounds [65536 x i16], ptr %101, i64 3
  %103 = load ptr, ptr %21, align 8, !tbaa !35
  %104 = getelementptr inbounds i8, ptr %103, i64 3
  %105 = load i8, ptr %104, align 1, !tbaa !80
  %106 = zext i8 %105 to i64
  %107 = getelementptr inbounds nuw [65536 x i16], ptr %102, i64 0, i64 %106
  %108 = load i16, ptr %107, align 2, !tbaa !81
  %109 = trunc i16 %108 to i8
  %110 = load ptr, ptr %22, align 8, !tbaa !35
  %111 = getelementptr inbounds i8, ptr %110, i64 3
  store i8 %109, ptr %111, align 1, !tbaa !80
  br label %112

112:                                              ; preds = %98, %100
  %113 = load ptr, ptr %17, align 8, !tbaa !87
  %114 = getelementptr inbounds [65536 x i16], ptr %113, i64 2
  %115 = load ptr, ptr %21, align 8, !tbaa !35
  %116 = getelementptr inbounds i8, ptr %115, i64 2
  %117 = load i8, ptr %116, align 1, !tbaa !80
  %118 = zext i8 %117 to i64
  %119 = getelementptr inbounds nuw [65536 x i16], ptr %114, i64 0, i64 %118
  %120 = load i16, ptr %119, align 2, !tbaa !81
  %121 = trunc i16 %120 to i8
  %122 = load ptr, ptr %22, align 8, !tbaa !35
  %123 = getelementptr inbounds i8, ptr %122, i64 2
  store i8 %121, ptr %123, align 1, !tbaa !80
  br label %124

124:                                              ; preds = %98, %112
  %125 = load ptr, ptr %17, align 8, !tbaa !87
  %126 = getelementptr inbounds [65536 x i16], ptr %125, i64 1
  %127 = load ptr, ptr %21, align 8, !tbaa !35
  %128 = getelementptr inbounds i8, ptr %127, i64 1
  %129 = load i8, ptr %128, align 1, !tbaa !80
  %130 = zext i8 %129 to i64
  %131 = getelementptr inbounds nuw [65536 x i16], ptr %126, i64 0, i64 %130
  %132 = load i16, ptr %131, align 2, !tbaa !81
  %133 = trunc i16 %132 to i8
  %134 = load ptr, ptr %22, align 8, !tbaa !35
  %135 = getelementptr inbounds i8, ptr %134, i64 1
  store i8 %133, ptr %135, align 1, !tbaa !80
  br label %136

136:                                              ; preds = %98, %124
  %137 = load ptr, ptr %17, align 8, !tbaa !87
  %138 = getelementptr inbounds [65536 x i16], ptr %137, i64 0
  %139 = load ptr, ptr %21, align 8, !tbaa !35
  %140 = getelementptr inbounds i8, ptr %139, i64 0
  %141 = load i8, ptr %140, align 1, !tbaa !80
  %142 = zext i8 %141 to i64
  %143 = getelementptr inbounds nuw [65536 x i16], ptr %138, i64 0, i64 %142
  %144 = load i16, ptr %143, align 2, !tbaa !81
  %145 = trunc i16 %144 to i8
  %146 = load ptr, ptr %22, align 8, !tbaa !35
  %147 = getelementptr inbounds i8, ptr %146, i64 0
  store i8 %145, ptr %147, align 1, !tbaa !80
  br label %148

148:                                              ; preds = %136
  %149 = load i32, ptr %18, align 4, !tbaa !24
  %150 = load ptr, ptr %22, align 8, !tbaa !35
  %151 = sext i32 %149 to i64
  %152 = getelementptr inbounds i8, ptr %150, i64 %151
  store ptr %152, ptr %22, align 8, !tbaa !35
  %153 = load i32, ptr %18, align 4, !tbaa !24
  %154 = load ptr, ptr %21, align 8, !tbaa !35
  %155 = sext i32 %153 to i64
  %156 = getelementptr inbounds i8, ptr %154, i64 %155
  store ptr %156, ptr %21, align 8, !tbaa !35
  br label %157

157:                                              ; preds = %148
  %158 = load i32, ptr %12, align 4, !tbaa !24
  %159 = add nsw i32 %158, 1
  store i32 %159, ptr %12, align 4, !tbaa !24
  br label %94, !llvm.loop !91

160:                                              ; preds = %94
  br label %161

161:                                              ; preds = %160
  %162 = load i32, ptr %11, align 4, !tbaa !24
  %163 = add nsw i32 %162, 1
  store i32 %163, ptr %11, align 4, !tbaa !24
  br label %77, !llvm.loop !92

164:                                              ; preds = %77
  call void @llvm.lifetime.end.p0(i64 4, ptr %26) #8
  call void @llvm.lifetime.end.p0(i64 4, ptr %25) #8
  call void @llvm.lifetime.end.p0(i64 8, ptr %24) #8
  call void @llvm.lifetime.end.p0(i64 8, ptr %23) #8
  call void @llvm.lifetime.end.p0(i64 8, ptr %22) #8
  call void @llvm.lifetime.end.p0(i64 8, ptr %21) #8
  call void @llvm.lifetime.end.p0(i64 4, ptr %20) #8
  call void @llvm.lifetime.end.p0(i64 4, ptr %19) #8
  call void @llvm.lifetime.end.p0(i64 4, ptr %18) #8
  call void @llvm.lifetime.end.p0(i64 8, ptr %17) #8
  call void @llvm.lifetime.end.p0(i64 8, ptr %16) #8
  call void @llvm.lifetime.end.p0(i64 8, ptr %15) #8
  call void @llvm.lifetime.end.p0(i64 4, ptr %14) #8
  call void @llvm.lifetime.end.p0(i64 4, ptr %13) #8
  call void @llvm.lifetime.end.p0(i64 4, ptr %12) #8
  call void @llvm.lifetime.end.p0(i64 4, ptr %11) #8
  call void @llvm.lifetime.end.p0(i64 8, ptr %10) #8
  call void @llvm.lifetime.end.p0(i64 8, ptr %9) #8
  ret i32 0
}