; Function Attrs: nofree norecurse nosync nounwind memory(readwrite, inaccessiblemem: none) uwtable
define internal noundef i32 @lut_packed_8bits(ptr noundef readonly captures(none) %0, ptr noundef readonly captures(none) %1, i32 noundef %2, i32 noundef %3) #5 {
  %5 = getelementptr inbounds nuw i8, ptr %0, i64 72
  %6 = load ptr, ptr %5, align 8, !tbaa !4
  %7 = getelementptr inbounds nuw i8, ptr %1, i64 16
  %8 = load i32, ptr %7, align 8, !tbaa !49
  %9 = getelementptr inbounds nuw i8, ptr %1, i64 20
  %10 = load i32, ptr %9, align 4, !tbaa !56
  %11 = load ptr, ptr %1, align 8, !tbaa !46
  %12 = getelementptr inbounds nuw i8, ptr %1, i64 8
  %13 = load ptr, ptr %12, align 8, !tbaa !48
  %14 = getelementptr inbounds nuw i8, ptr %6, i64 8
  %15 = getelementptr inbounds nuw i8, ptr %6, i64 524440
  %16 = load i32, ptr %15, align 8, !tbaa !69
  %17 = mul nsw i32 %10, %2
  %18 = sdiv i32 %17, %3
  %19 = add nsw i32 %2, 1
  %20 = mul nsw i32 %10, %19
  %21 = sdiv i32 %20, %3
  %22 = getelementptr inbounds nuw i8, ptr %11, i64 64
  %23 = load i32, ptr %22, align 8, !tbaa !67
  %24 = getelementptr inbounds nuw i8, ptr %13, i64 64
  %25 = load i32, ptr %24, align 8, !tbaa !67
  %26 = load ptr, ptr %11, align 8, !tbaa !72
  %27 = load ptr, ptr %13, align 8, !tbaa !72
  %28 = icmp slt i32 %18, %21
  br i1 %28, label %.lr.ph63, label %._crit_edge64

.lr.ph63:                                         ; preds = %4
  %29 = icmp sgt i32 %8, 0
  %30 = getelementptr inbounds nuw i8, ptr %6, i64 393224
  %31 = getelementptr inbounds nuw i8, ptr %6, i64 262152
  %32 = getelementptr inbounds nuw i8, ptr %6, i64 131080
  %33 = sext i32 %16 to i64
  br i1 %29, label %.lr.ph63.split.us, label %._crit_edge64

.lr.ph63.split.us:                                ; preds = %.lr.ph63
  %34 = sext i32 %18 to i64
  %35 = sext i32 %23 to i64
  %36 = sext i32 %25 to i64
  %wide.trip.count106 = sext i32 %21 to i64
  switch i32 %16, label %.lr.ph.us [
    i32 4, label %.lr.ph.us.us
    i32 3, label %.lr.ph.us.us73
    i32 2, label %.lr.ph.us.us79
  ]

.lr.ph.us.us:                                     ; preds = %.lr.ph63.split.us, %._crit_edge.split.us.us.us
  %indvars.iv97 = phi i64 [ %indvars.iv.next98, %._crit_edge.split.us.us.us ], [ %34, %.lr.ph63.split.us ]
  %37 = mul nsw i64 %indvars.iv97, %35
  %38 = getelementptr inbounds i8, ptr %26, i64 %37
  %39 = mul nsw i64 %indvars.iv97, %36
  %40 = getelementptr inbounds i8, ptr %27, i64 %39
  br label %41

41:                                               ; preds = %41, %.lr.ph.us.us
  %.04752.us.us.us = phi i32 [ 0, %.lr.ph.us.us ], [ %70, %41 ]
  %.04851.us.us.us = phi ptr [ %38, %.lr.ph.us.us ], [ %69, %41 ]
  %.04950.us.us.us = phi ptr [ %40, %.lr.ph.us.us ], [ %68, %41 ]
  %42 = getelementptr inbounds nuw i8, ptr %.04851.us.us.us, i64 3
  %43 = load i8, ptr %42, align 1, !tbaa !71
  %44 = zext i8 %43 to i64
  %45 = getelementptr inbounds nuw [65536 x i16], ptr %30, i64 0, i64 %44
  %46 = load i16, ptr %45, align 2, !tbaa !73
  %47 = trunc i16 %46 to i8
  %48 = getelementptr inbounds nuw i8, ptr %.04950.us.us.us, i64 3
  store i8 %47, ptr %48, align 1, !tbaa !71
  %49 = getelementptr inbounds nuw i8, ptr %.04851.us.us.us, i64 2
  %50 = load i8, ptr %49, align 1, !tbaa !71
  %51 = zext i8 %50 to i64
  %52 = getelementptr inbounds nuw [65536 x i16], ptr %31, i64 0, i64 %51
  %53 = load i16, ptr %52, align 2, !tbaa !73
  %54 = trunc i16 %53 to i8
  %55 = getelementptr inbounds nuw i8, ptr %.04950.us.us.us, i64 2
  store i8 %54, ptr %55, align 1, !tbaa !71
  %56 = getelementptr inbounds nuw i8, ptr %.04851.us.us.us, i64 1
  %57 = load i8, ptr %56, align 1, !tbaa !71
  %58 = zext i8 %57 to i64
  %59 = getelementptr inbounds nuw [65536 x i16], ptr %32, i64 0, i64 %58
  %60 = load i16, ptr %59, align 2, !tbaa !73
  %61 = trunc i16 %60 to i8
  %62 = getelementptr inbounds nuw i8, ptr %.04950.us.us.us, i64 1
  store i8 %61, ptr %62, align 1, !tbaa !71
  %63 = load i8, ptr %.04851.us.us.us, align 1, !tbaa !71
  %64 = zext i8 %63 to i64
  %65 = getelementptr inbounds nuw [65536 x i16], ptr %14, i64 0, i64 %64
  %66 = load i16, ptr %65, align 2, !tbaa !73
  %67 = trunc i16 %66 to i8
  store i8 %67, ptr %.04950.us.us.us, align 1, !tbaa !71
  %68 = getelementptr inbounds i8, ptr %.04950.us.us.us, i64 %33
  %69 = getelementptr inbounds i8, ptr %.04851.us.us.us, i64 %33
  %70 = add nuw nsw i32 %.04752.us.us.us, 1
  %exitcond96.not = icmp eq i32 %70, %8
  br i1 %exitcond96.not, label %._crit_edge.split.us.us.us, label %41, !llvm.loop !79

._crit_edge.split.us.us.us:                       ; preds = %41
  %indvars.iv.next98 = add nsw i64 %indvars.iv97, 1
  %exitcond101.not = icmp eq i64 %indvars.iv.next98, %wide.trip.count106
  br i1 %exitcond101.not, label %._crit_edge64, label %.lr.ph.us.us, !llvm.loop !80

.lr.ph.us.us73:                                   ; preds = %.lr.ph63.split.us, %._crit_edge.split.split.us.us.us
  %indvars.iv91 = phi i64 [ %indvars.iv.next92, %._crit_edge.split.split.us.us.us ], [ %34, %.lr.ph63.split.us ]
  %71 = mul nsw i64 %indvars.iv91, %35
  %72 = getelementptr inbounds i8, ptr %26, i64 %71
  %73 = mul nsw i64 %indvars.iv91, %36
  %74 = getelementptr inbounds i8, ptr %27, i64 %73
  br label %75

75:                                               ; preds = %75, %.lr.ph.us.us73
  %.04752.us54.us.us = phi i32 [ 0, %.lr.ph.us.us73 ], [ %97, %75 ]
  %.04851.us55.us.us = phi ptr [ %72, %.lr.ph.us.us73 ], [ %96, %75 ]
  %.04950.us56.us.us = phi ptr [ %74, %.lr.ph.us.us73 ], [ %95, %75 ]
  %76 = getelementptr inbounds nuw i8, ptr %.04851.us55.us.us, i64 2
  %77 = load i8, ptr %76, align 1, !tbaa !71
  %78 = zext i8 %77 to i64
  %79 = getelementptr inbounds nuw [65536 x i16], ptr %31, i64 0, i64 %78
  %80 = load i16, ptr %79, align 2, !tbaa !73
  %81 = trunc i16 %80 to i8
  %82 = getelementptr inbounds nuw i8, ptr %.04950.us56.us.us, i64 2
  store i8 %81, ptr %82, align 1, !tbaa !71
  %83 = getelementptr inbounds nuw i8, ptr %.04851.us55.us.us, i64 1
  %84 = load i8, ptr %83, align 1, !tbaa !71
  %85 = zext i8 %84 to i64
  %86 = getelementptr inbounds nuw [65536 x i16], ptr %32, i64 0, i64 %85
  %87 = load i16, ptr %86, align 2, !tbaa !73
  %88 = trunc i16 %87 to i8
  %89 = getelementptr inbounds nuw i8, ptr %.04950.us56.us.us, i64 1
  store i8 %88, ptr %89, align 1, !tbaa !71
  %90 = load i8, ptr %.04851.us55.us.us, align 1, !tbaa !71
  %91 = zext i8 %90 to i64
  %92 = getelementptr inbounds nuw [65536 x i16], ptr %14, i64 0, i64 %91
  %93 = load i16, ptr %92, align 2, !tbaa !73
  %94 = trunc i16 %93 to i8
  store i8 %94, ptr %.04950.us56.us.us, align 1, !tbaa !71
  %95 = getelementptr inbounds i8, ptr %.04950.us56.us.us, i64 %33
  %96 = getelementptr inbounds i8, ptr %.04851.us55.us.us, i64 %33
  %97 = add nuw nsw i32 %.04752.us54.us.us, 1
  %exitcond90.not = icmp eq i32 %97, %8
  br i1 %exitcond90.not, label %._crit_edge.split.split.us.us.us, label %75, !llvm.loop !79

._crit_edge.split.split.us.us.us:                 ; preds = %75
  %indvars.iv.next92 = add nsw i64 %indvars.iv91, 1
  %exitcond95.not = icmp eq i64 %indvars.iv.next92, %wide.trip.count106
  br i1 %exitcond95.not, label %._crit_edge64, label %.lr.ph.us.us73, !llvm.loop !80

.lr.ph.us.us79:                                   ; preds = %.lr.ph63.split.us, %._crit_edge.split.split.split.us.us.us
  %indvars.iv = phi i64 [ %indvars.iv.next, %._crit_edge.split.split.split.us.us.us ], [ %34, %.lr.ph63.split.us ]
  %98 = mul nsw i64 %indvars.iv, %35
  %99 = getelementptr inbounds i8, ptr %26, i64 %98
  %100 = mul nsw i64 %indvars.iv, %36
  %101 = getelementptr inbounds i8, ptr %27, i64 %100
  br label %102

102:                                              ; preds = %102, %.lr.ph.us.us79
  %.04752.us58.us.us = phi i32 [ 0, %.lr.ph.us.us79 ], [ %117, %102 ]
  %.04851.us59.us.us = phi ptr [ %99, %.lr.ph.us.us79 ], [ %116, %102 ]
  %.04950.us60.us.us = phi ptr [ %101, %.lr.ph.us.us79 ], [ %115, %102 ]
  %103 = getelementptr inbounds nuw i8, ptr %.04851.us59.us.us, i64 1
  %104 = load i8, ptr %103, align 1, !tbaa !71
  %105 = zext i8 %104 to i64
  %106 = getelementptr inbounds nuw [65536 x i16], ptr %32, i64 0, i64 %105
  %107 = load i16, ptr %106, align 2, !tbaa !73
  %108 = trunc i16 %107 to i8
  %109 = getelementptr inbounds nuw i8, ptr %.04950.us60.us.us, i64 1
  store i8 %108, ptr %109, align 1, !tbaa !71
  %110 = load i8, ptr %.04851.us59.us.us, align 1, !tbaa !71
  %111 = zext i8 %110 to i64
  %112 = getelementptr inbounds nuw [65536 x i16], ptr %14, i64 0, i64 %111
  %113 = load i16, ptr %112, align 2, !tbaa !73
  %114 = trunc i16 %113 to i8
  store i8 %114, ptr %.04950.us60.us.us, align 1, !tbaa !71
  %115 = getelementptr inbounds i8, ptr %.04950.us60.us.us, i64 %33
  %116 = getelementptr inbounds i8, ptr %.04851.us59.us.us, i64 %33
  %117 = add nuw nsw i32 %.04752.us58.us.us, 1
  %exitcond.not = icmp eq i32 %117, %8
  br i1 %exitcond.not, label %._crit_edge.split.split.split.us.us.us, label %102, !llvm.loop !79

._crit_edge.split.split.split.us.us.us:           ; preds = %102
  %indvars.iv.next = add nsw i64 %indvars.iv, 1
  %exitcond89.not = icmp eq i64 %indvars.iv.next, %wide.trip.count106
  br i1 %exitcond89.not, label %._crit_edge64, label %.lr.ph.us.us79, !llvm.loop !80

.lr.ph.us:                                        ; preds = %.lr.ph63.split.us, %._crit_edge.split.split.split.us68
  %indvars.iv103 = phi i64 [ %indvars.iv.next104, %._crit_edge.split.split.split.us68 ], [ %34, %.lr.ph63.split.us ]
  %118 = mul nsw i64 %indvars.iv103, %35
  %119 = getelementptr inbounds i8, ptr %26, i64 %118
  %120 = mul nsw i64 %indvars.iv103, %36
  %121 = getelementptr inbounds i8, ptr %27, i64 %120
  br label %122

122:                                              ; preds = %.lr.ph.us, %122
  %.04752.us65 = phi i32 [ 0, %.lr.ph.us ], [ %130, %122 ]
  %.04851.us66 = phi ptr [ %119, %.lr.ph.us ], [ %129, %122 ]
  %.04950.us67 = phi ptr [ %121, %.lr.ph.us ], [ %128, %122 ]
  %123 = load i8, ptr %.04851.us66, align 1, !tbaa !71
  %124 = zext i8 %123 to i64
  %125 = getelementptr inbounds nuw [65536 x i16], ptr %14, i64 0, i64 %124
  %126 = load i16, ptr %125, align 2, !tbaa !73
  %127 = trunc i16 %126 to i8
  store i8 %127, ptr %.04950.us67, align 1, !tbaa !71
  %128 = getelementptr inbounds i8, ptr %.04950.us67, i64 %33
  %129 = getelementptr inbounds i8, ptr %.04851.us66, i64 %33
  %130 = add nuw nsw i32 %.04752.us65, 1
  %exitcond102.not = icmp eq i32 %130, %8
  br i1 %exitcond102.not, label %._crit_edge.split.split.split.us68, label %122, !llvm.loop !79

._crit_edge.split.split.split.us68:               ; preds = %122
  %indvars.iv.next104 = add nsw i64 %indvars.iv103, 1
  %exitcond107.not = icmp eq i64 %indvars.iv.next104, %wide.trip.count106
  br i1 %exitcond107.not, label %._crit_edge64, label %.lr.ph.us, !llvm.loop !80

._crit_edge64:                                    ; preds = %._crit_edge.split.split.split.us.us.us, %._crit_edge.split.split.us.us.us, %._crit_edge.split.us.us.us, %._crit_edge.split.split.split.us68, %.lr.ph63, %4
  ret i32 0
}